target datalayout = "e-m:e-p270:32:32-p271:32:32-p272:64:64-i64:64-i128:128-f80:128-n8:16:32:64-S128"
target triple = "x86_64-pc-linux-gnu"

%"class.llvm::StringMapImpl" = type { ptr, i32, i32, i32, i32 }
%"class.std::__cxx11::basic_string" = type { %"struct.std::__cxx11::basic_string<char>::_Alloc_hider", i64, %union.anon }
%"struct.std::__cxx11::basic_string<char>::_Alloc_hider" = type { ptr }
%union.anon = type { i64, [8 x i8] }
%"class.std::vector.410" = type { %"struct.std::_Vector_base.411" }
%"struct.std::_Vector_base.411" = type { %"struct.std::_Vector_base<std::__cxx11::basic_string<char>, std::allocator<std::__cxx11::basic_string<char>>>::_Vector_impl" }
%"struct.std::_Vector_base<std::__cxx11::basic_string<char>, std::allocator<std::__cxx11::basic_string<char>>>::_Vector_impl" = type { %"struct.std::_Vector_base<std::__cxx11::basic_string<char>, std::allocator<std::__cxx11::basic_string<char>>>::_Vector_impl_data" }
%"struct.std::_Vector_base<std::__cxx11::basic_string<char>, std::allocator<std::__cxx11::basic_string<char>>>::_Vector_impl_data" = type { ptr, ptr, ptr }
%"class.llvm::StringRef" = type { ptr, i64 }
%"class.std::error_code" = type { i32, ptr }
%"class.std::optional.420" = type { %"struct.std::_Optional_base.421" }
%"struct.std::_Optional_base.421" = type { %"struct.std::_Optional_payload.423" }
%"struct.std::_Optional_payload.423" = type { %"struct.std::_Optional_payload_base.424" }
%"struct.std::_Optional_payload_base.424" = type { %"union.std::_Optional_payload_base<bool>::_Storage", i8 }
%"union.std::_Optional_payload_base<bool>::_Storage" = type { %"struct.std::_Optional_payload_base<bool>::_Empty_byte" }
%"struct.std::_Optional_payload_base<bool>::_Empty_byte" = type { i8 }
%"class.clang::ModuleDependencyCollector" = type { %"class.clang::DependencyCollector", %"class.std::__cxx11::basic_string", i8, %"class.llvm::StringSet", %"class.llvm::vfs::YAMLVFSWriter", %"class.llvm::FileCollector::PathCanonicalizer" }
%"class.clang::DependencyCollector" = type { ptr, %"class.llvm::StringSet", %"class.std::vector.410" }
%"class.llvm::StringSet" = type { %"class.llvm::StringMap.409" }
%"class.llvm::StringMap.409" = type { %"class.llvm::StringMapImpl" }
%"class.llvm::vfs::YAMLVFSWriter" = type { %"class.std::vector.415", %"class.std::optional.420", %"class.std::optional.420", %"class.std::optional.420", %"class.std::__cxx11::basic_string" }
%"class.std::vector.415" = type { %"struct.std::_Vector_base.416" }
%"struct.std::_Vector_base.416" = type { %"struct.std::_Vector_base<llvm::vfs::YAMLVFSEntry, std::allocator<llvm::vfs::YAMLVFSEntry>>::_Vector_impl" }
%"struct.std::_Vector_base<llvm::vfs::YAMLVFSEntry, std::allocator<llvm::vfs::YAMLVFSEntry>>::_Vector_impl" = type { %"struct.std::_Vector_base<llvm::vfs::YAMLVFSEntry, std::allocator<llvm::vfs::YAMLVFSEntry>>::_Vector_impl_data" }
%"struct.std::_Vector_base<llvm::vfs::YAMLVFSEntry, std::allocator<llvm::vfs::YAMLVFSEntry>>::_Vector_impl_data" = type { ptr, ptr, ptr }
%"class.llvm::FileCollector::PathCanonicalizer" = type { %"class.llvm::StringMap.426" }
%"class.llvm::StringMap.426" = type { %"class.llvm::StringMapImpl" }

; Function Attrs: mustprogress nounwind uwtable
define linkonce_odr hidden noundef zeroext i1 @_ZNKSt10error_codecvbEv(ptr noundef nonnull align 8 dereferenceable(16) %0) #0 comdat align 2 {
  %2 = alloca ptr, align 8
  store ptr %0, ptr %2, align 8
  %3 = load ptr, ptr %2, align 8
  %4 = getelementptr inbounds nuw %"class.std::error_code", ptr %3, i32 0, i32 0
  %5 = load i32, ptr %4, align 8
  %6 = icmp ne i32 %5, 0
  ret i1 %6
}

; Function Attrs: mustprogress nounwind uwtable
define dso_local void @_ZN5clang25ModuleDependencyCollector7addFileEN4llvm9StringRefES2_(ptr noundef nonnull align 8 dereferenceable(208) %0, ptr %1, i64 %2, ptr %3, i64 %4) unnamed_addr #0 align 2 {
  %6 = alloca %"class.llvm::StringRef", align 8
  %7 = alloca %"class.llvm::StringRef", align 8
  %8 = alloca ptr, align 8
  %9 = alloca %"class.llvm::StringRef", align 8
  %10 = alloca %"class.std::error_code", align 8
  %11 = alloca %"class.llvm::StringRef", align 8
  %12 = alloca %"class.llvm::StringRef", align 8
  %13 = getelementptr inbounds nuw { ptr, i64 }, ptr %6, i32 0, i32 0
  store ptr %1, ptr %13, align 8
  %14 = getelementptr inbounds nuw { ptr, i64 }, ptr %6, i32 0, i32 1
  store i64 %2, ptr %14, align 8
  %15 = getelementptr inbounds nuw { ptr, i64 }, ptr %7, i32 0, i32 0
  store ptr %3, ptr %15, align 8
  %16 = getelementptr inbounds nuw { ptr, i64 }, ptr %7, i32 0, i32 1
  store i64 %4, ptr %16, align 8
  store ptr %0, ptr %8, align 8
  %17 = load ptr, ptr %8, align 8
  call void @llvm.memcpy.p0.p0.i64(ptr align 8 %9, ptr align 8 %6, i64 16, i1 false)
  %18 = getelementptr inbounds nuw { ptr, i64 }, ptr %9, i32 0, i32 0
  %19 = load ptr, ptr %18, align 8
  %20 = getelementptr inbounds nuw { ptr, i64 }, ptr %9, i32 0, i32 1
  %21 = load i64, ptr %20, align 8
  %22 = load ptr, ptr %17, align 8
  %23 = getelementptr inbounds ptr, ptr %22, i64 8
  %24 = load ptr, ptr %23, align 8
  %25 = call noundef zeroext i1 %24(ptr noundef nonnull align 8 dereferenceable(208) %17, ptr %19, i64 %21)
  br i1 %25, label %26, label %44

26:                                               ; preds = %5
  call void @llvm.memcpy.p0.p0.i64(ptr align 8 %11, ptr align 8 %6, i64 16, i1 false)
  call void @llvm.memcpy.p0.p0.i64(ptr align 8 %12, ptr align 8 %7, i64 16, i1 false)
  %27 = getelementptr inbounds nuw { ptr, i64 }, ptr %11, i32 0, i32 0
  %28 = load ptr, ptr %27, align 8
  %29 = getelementptr inbounds nuw { ptr, i64 }, ptr %11, i32 0, i32 1
  %30 = load i64, ptr %29, align 8
  %31 = getelementptr inbounds nuw { ptr, i64 }, ptr %12, i32 0, i32 0
  %32 = load ptr, ptr %31, align 8
  %33 = getelementptr inbounds nuw { ptr, i64 }, ptr %12, i32 0, i32 1
  %34 = load i64, ptr %33, align 8
  %35 = call { i32, ptr } @_ZN5clang25ModuleDependencyCollector10copyToRootEN4llvm9StringRefES2_(ptr noundef nonnull align 8 dereferenceable(208) %17, ptr %28, i64 %30, ptr %32, i64 %34)
  %36 = getelementptr inbounds nuw { i32, ptr }, ptr %10, i32 0, i32 0
  %37 = extractvalue { i32, ptr } %35, 0
  store i32 %37, ptr %36, align 8
  %38 = getelementptr inbounds nuw { i32, ptr }, ptr %10, i32 0, i32 1
  %39 = extractvalue { i32, ptr } %35, 1
  store ptr %39, ptr %38, align 8
  %40 = call noundef zeroext i1 @_ZNKSt10error_codecvbEv(ptr noundef nonnull align 8 dereferenceable(16) %10) #12
  br i1 %40, label %41, label %43

41:                                               ; preds = %26
  %42 = getelementptr inbounds nuw %"class.clang::ModuleDependencyCollector", ptr %17, i32 0, i32 2
  store i8 1, ptr %42, align 8
  br label %43

43:                                               ; preds = %41, %26
  br label %44

44:                                               ; preds = %43, %5
  ret void
}