; Function Attrs: mustprogress nounwind uwtable
define dso_local void @_ZN5clang25ModuleDependencyCollector7addFileEN4llvm9StringRefES2_(ptr noundef nonnull align 8 dereferenceable(208) %0, ptr %1, i64 %2, ptr %3, i64 %4) unnamed_addr #0 align 2 {
  %6 = load ptr, ptr %0, align 8
  %7 = getelementptr inbounds i8, ptr %6, i64 64
  %8 = load ptr, ptr %7, align 8
  %9 = tail call noundef zeroext i1 %8(ptr noundef nonnull align 8 dereferenceable(208) %0, ptr %1, i64 %2) #17
  br i1 %9, label %10, label %15

10:                                               ; preds = %5
  %11 = tail call { i32, ptr } @_ZN5clang25ModuleDependencyCollector10copyToRootEN4llvm9StringRefES2_(ptr noundef nonnull align 8 dereferenceable(208) %0, ptr %1, i64 %2, ptr %3, i64 %4)
  %12 = extractvalue { i32, ptr } %11, 0
  %.not = icmp eq i32 %12, 0
  br i1 %.not, label %15, label %13

13:                                               ; preds = %10
  %14 = getelementptr inbounds nuw i8, ptr %0, i64 88
  store i8 1, ptr %14, align 8
  br label %15

15:                                               ; preds = %10, %13, %5
  ret void
}